; Function Attrs: mustprogress nofree norecurse nosync nounwind willreturn memory(argmem: read) uwtable
define noundef range(i32 0, 2) i32 @_ZN11duckdb_zstd12ZSTD_isFrameEPKvm(ptr noundef readonly captures(none) %0, i64 noundef %1) local_unnamed_addr #8 {
  %3 = icmp ult i64 %1, 4
  br i1 %3, label %.thread, label %4

4:                                                ; preds = %2
  %.val = load i32, ptr %0, align 1, !tbaa !55
  %.val.fr = freeze i32 %.val
  %5 = icmp eq i32 %.val.fr, -47205080
  br i1 %5, label %.thread, label %6

6:                                                ; preds = %4
  %7 = and i32 %.val.fr, -16
  %.not = icmp eq i32 %7, 407710288
  %spec.select = zext i1 %.not to i32
  br label %.thread

.thread:                                          ; preds = %6, %4, %2
  %.05 = phi i32 [ 0, %2 ], [ 1, %4 ], [ %spec.select, %6 ]
  ret i32 %.05
}